target datalayout = "e-m:e-p270:32:32-p271:32:32-p272:64:64-i64:64-i128:128-f80:128-n8:16:32:64-S128"
target triple = "x86_64-pc-linux-gnu"

@CurrentUserId = internal global i32 0, align 4
@OuterUserId = internal global i32 0, align 4
@SessionUserId = internal global i32 0, align 4
@SessionUserIsSuperuser = internal global i8 0, align 1
@SetRoleIsActive = internal global i8 0, align 1
@.str.62 = private unnamed_addr constant [13 x i8] c"is_superuser\00", align 1
@.str.63 = private unnamed_addr constant [3 x i8] c"on\00", align 1
@.str.64 = private unnamed_addr constant [4 x i8] c"off\00", align 1

; Function Attrs: nounwind uwtable
define internal void @SetOuterUserId(i32 noundef %0, i1 noundef zeroext %1) #0 {
  %3 = alloca i32, align 4
  %4 = alloca i8, align 1
  store i32 %0, ptr %3, align 4
  %5 = zext i1 %1 to i8
  store i8 %5, ptr %4, align 1
  %6 = load i32, ptr %3, align 4
  store i32 %6, ptr @OuterUserId, align 4
  %7 = load i32, ptr %3, align 4
  store i32 %7, ptr @CurrentUserId, align 4
  %8 = load i8, ptr %4, align 1, !range !4, !noundef !5
  %9 = trunc i8 %8 to i1
  %10 = select i1 %9, ptr @.str.63, ptr @.str.64
  call void @SetConfigOption(ptr noundef @.str.62, ptr noundef %10, i32 noundef 0, i32 noundef 1)
  ret void
}

; Function Attrs: nounwind uwtable
define dso_local void @SetCurrentRoleId(i32 noundef %0, i1 noundef zeroext %1) #0 {
  %3 = alloca i32, align 4
  %4 = alloca i8, align 1
  store i32 %0, ptr %3, align 4
  %5 = zext i1 %1 to i8
  store i8 %5, ptr %4, align 1
  %6 = load i32, ptr %3, align 4
  %7 = icmp ne i32 %6, 0
  br i1 %7, label %17, label %8

8:                                                ; preds = %2
  store i8 0, ptr @SetRoleIsActive, align 1
  %9 = load i32, ptr @SessionUserId, align 4
  %10 = icmp ne i32 %9, 0
  br i1 %10, label %12, label %11

11:                                               ; preds = %8
  br label %22

12:                                               ; preds = %8
  %13 = load i32, ptr @SessionUserId, align 4
  store i32 %13, ptr %3, align 4
  %14 = load i8, ptr @SessionUserIsSuperuser, align 1, !range !4, !noundef !5
  %15 = trunc i8 %14 to i1
  %16 = zext i1 %15 to i8
  store i8 %16, ptr %4, align 1
  br label %18

17:                                               ; preds = %2
  store i8 1, ptr @SetRoleIsActive, align 1
  br label %18

18:                                               ; preds = %17, %12
  %19 = load i32, ptr %3, align 4
  %20 = load i8, ptr %4, align 1, !range !4, !noundef !5
  %21 = trunc i8 %20 to i1
  call void @SetOuterUserId(i32 noundef %19, i1 noundef zeroext %21)
  br label %22

22:                                               ; preds = %18, %11
  ret void
}