; Function Attrs: nounwind uwtable
define dso_local void @SetCurrentRoleId(i32 noundef %0, i1 noundef zeroext %1) local_unnamed_addr #0 {
  %.not = icmp eq i32 %0, 0
  br i1 %.not, label %3, label %8

3:                                                ; preds = %2
  store i1 false, ptr @SetRoleIsActive, align 1
  %4 = load i32, ptr @SessionUserId, align 4
  %.not6 = icmp eq i32 %4, 0
  br i1 %.not6, label %11, label %5

5:                                                ; preds = %3
  %6 = load i8, ptr @SessionUserIsSuperuser, align 1, !range !4, !noundef !5
  %7 = trunc nuw i8 %6 to i1
  br label %9

8:                                                ; preds = %2
  store i1 true, ptr @SetRoleIsActive, align 1
  br label %9

9:                                                ; preds = %8, %5
  %.03 = phi i32 [ %0, %8 ], [ %4, %5 ]
  %.0 = phi i1 [ %1, %8 ], [ %7, %5 ]
  store i32 %.03, ptr @OuterUserId, align 4
  store i32 %.03, ptr @CurrentUserId, align 4
  %10 = select i1 %.0, ptr @.str.63, ptr @.str.64
  tail call void @SetConfigOption(ptr noundef nonnull @.str.62, ptr noundef nonnull %10, i32 noundef 0, i32 noundef 1) #22
  br label %11

11:                                               ; preds = %3, %9
  ret void
}